; ModuleID = '63/1414.c'
source_filename = "63/1414.c"
target datalayout = "e-m:e-p270:32:32-p271:32:32-p272:64:64-i64:64-f80:128-n8:16:32:64-S128"
target triple = "x86_64-pc-linux-gnu"

@.str = private unnamed_addr constant [6 x i8] c"%d %d\00", align 1
@.str.1 = private unnamed_addr constant [3 x i8] c"%d\00", align 1
@.str.2 = private unnamed_addr constant [4 x i8] c"%d \00", align 1
@.str.3 = private unnamed_addr constant [2 x i8] c"\0A\00", align 1

; Function Attrs: noinline nounwind uwtable
define dso_local i32 @main() #0 {
  %1 = alloca i32, align 4
  %2 = alloca i32, align 4
  %3 = alloca i32, align 4
  %4 = alloca i32, align 4
  %5 = alloca i32, align 4
  %6 = alloca i32, align 4
  %7 = alloca i32, align 4
  %8 = alloca i32, align 4
  %9 = alloca i32, align 4
  %10 = alloca i8*, align 8
  %11 = alloca i64, align 8
  %12 = alloca i64, align 8
  %13 = alloca i64, align 8
  %14 = alloca i64, align 8
  %15 = alloca i64, align 8
  %16 = alloca i64, align 8
  store i32 0, i32* %1, align 4
  %17 = call i32 (i8*, ...) @__isoc99_scanf(i8* getelementptr inbounds ([6 x i8], [6 x i8]* @.str, i64 0, i64 0), i32* %6, i32* %7)
  %18 = load i32, i32* %6, align 4
  %19 = zext i32 %18 to i64
  %20 = load i32, i32* %7, align 4
  %21 = zext i32 %20 to i64
  %22 = call i8* @llvm.stacksave()
  store i8* %22, i8** %10, align 8
  %23 = mul nuw i64 %19, %21
  %24 = alloca i32, i64 %23, align 16
  store i64 %19, i64* %11, align 8
  store i64 %21, i64* %12, align 8
  store i32 0, i32* %4, align 4
  br label %25

25:                                               ; preds = %47, %0
  %26 = load i32, i32* %4, align 4
  %27 = load i32, i32* %6, align 4
  %28 = icmp slt i32 %26, %27
  br i1 %28, label %29, label %50

29:                                               ; preds = %25
  store i32 0, i32* %5, align 4
  br label %30

30:                                               ; preds = %43, %29
  %31 = load i32, i32* %5, align 4
  %32 = load i32, i32* %7, align 4
  %33 = icmp slt i32 %31, %32
  br i1 %33, label %34, label %46

34:                                               ; preds = %30
  %35 = load i32, i32* %4, align 4
  %36 = sext i32 %35 to i64
  %37 = mul nsw i64 %36, %21
  %38 = getelementptr inbounds i32, i32* %24, i64 %37
  %39 = load i32, i32* %5, align 4
  %40 = sext i32 %39 to i64
  %41 = getelementptr inbounds i32, i32* %38, i64 %40
  %42 = call i32 (i8*, ...) @__isoc99_scanf(i8* getelementptr inbounds ([3 x i8], [3 x i8]* @.str.1, i64 0, i64 0), i32* %41)
  br label %43

43:                                               ; preds = %34
  %44 = load i32, i32* %5, align 4
  %45 = add nsw i32 %44, 1
  store i32 %45, i32* %5, align 4
  br label %30

46:                                               ; preds = %30
  br label %47

47:                                               ; preds = %46
  %48 = load i32, i32* %4, align 4
  %49 = add nsw i32 %48, 1
  store i32 %49, i32* %4, align 4
  br label %25

50:                                               ; preds = %25
  %51 = call i32 (i8*, ...) @__isoc99_scanf(i8* getelementptr inbounds ([6 x i8], [6 x i8]* @.str, i64 0, i64 0), i32* %8, i32* %9)
  %52 = load i32, i32* %8, align 4
  %53 = zext i32 %52 to i64
  %54 = load i32, i32* %9, align 4
  %55 = zext i32 %54 to i64
  %56 = mul nuw i64 %53, %55
  %57 = alloca i32, i64 %56, align 16
  store i64 %53, i64* %13, align 8
  store i64 %55, i64* %14, align 8
  store i32 0, i32* %4, align 4
  br label %58

58:                                               ; preds = %80, %50
  %59 = load i32, i32* %4, align 4
  %60 = load i32, i32* %8, align 4
  %61 = icmp slt i32 %59, %60
  br i1 %61, label %62, label %83

62:                                               ; preds = %58
  store i32 0, i32* %5, align 4
  br label %63

63:                                               ; preds = %76, %62
  %64 = load i32, i32* %5, align 4
  %65 = load i32, i32* %9, align 4
  %66 = icmp slt i32 %64, %65
  br i1 %66, label %67, label %79

67:                                               ; preds = %63
  %68 = load i32, i32* %4, align 4
  %69 = sext i32 %68 to i64
  %70 = mul nsw i64 %69, %55
  %71 = getelementptr inbounds i32, i32* %57, i64 %70
  %72 = load i32, i32* %5, align 4
  %73 = sext i32 %72 to i64
  %74 = getelementptr inbounds i32, i32* %71, i64 %73
  %75 = call i32 (i8*, ...) @__isoc99_scanf(i8* getelementptr inbounds ([3 x i8], [3 x i8]* @.str.1, i64 0, i64 0), i32* %74)
  br label %76

76:                                               ; preds = %67
  %77 = load i32, i32* %5, align 4
  %78 = add nsw i32 %77, 1
  store i32 %78, i32* %5, align 4
  br label %63

79:                                               ; preds = %63
  br label %80

80:                                               ; preds = %79
  %81 = load i32, i32* %4, align 4
  %82 = add nsw i32 %81, 1
  store i32 %82, i32* %4, align 4
  br label %58

83:                                               ; preds = %58
  %84 = load i32, i32* %6, align 4
  %85 = zext i32 %84 to i64
  %86 = load i32, i32* %9, align 4
  %87 = zext i32 %86 to i64
  %88 = mul nuw i64 %85, %87
  %89 = alloca i32, i64 %88, align 16
  store i64 %85, i64* %15, align 8
  store i64 %87, i64* %16, align 8
  store i32 0, i32* %4, align 4
  br label %90

90:                                               ; preds = %179, %83
  %91 = load i32, i32* %4, align 4
  %92 = load i32, i32* %6, align 4
  %93 = icmp slt i32 %91, %92
  br i1 %93, label %94, label %182

94:                                               ; preds = %90
  store i32 0, i32* %5, align 4
  br label %95

95:                                               ; preds = %174, %94
  %96 = load i32, i32* %5, align 4
  %97 = load i32, i32* %9, align 4
  %98 = icmp slt i32 %96, %97
  br i1 %98, label %99, label %177

99:                                               ; preds = %95
  %100 = load i32, i32* %4, align 4
  %101 = sext i32 %100 to i64
  %102 = mul nsw i64 %101, %87
  %103 = getelementptr inbounds i32, i32* %89, i64 %102
  %104 = load i32, i32* %5, align 4
  %105 = sext i32 %104 to i64
  %106 = getelementptr inbounds i32, i32* %103, i64 %105
  store i32 0, i32* %106, align 4
  store i32 0, i32* %3, align 4
  br label %107

107:                                              ; preds = %145, %99
  %108 = load i32, i32* %3, align 4
  %109 = load i32, i32* %7, align 4
  %110 = icmp slt i32 %108, %109
  br i1 %110, label %111, label %148

111:                                              ; preds = %107
  %112 = load i32, i32* %4, align 4
  %113 = sext i32 %112 to i64
  %114 = mul nsw i64 %113, %87
  %115 = getelementptr inbounds i32, i32* %89, i64 %114
  %116 = load i32, i32* %5, align 4
  %117 = sext i32 %116 to i64
  %118 = getelementptr inbounds i32, i32* %115, i64 %117
  %119 = load i32, i32* %118, align 4
  %120 = load i32, i32* %4, align 4
  %121 = sext i32 %120 to i64
  %122 = mul nsw i64 %121, %21
  %123 = getelementptr inbounds i32, i32* %24, i64 %122
  %124 = load i32, i32* %3, align 4
  %125 = sext i32 %124 to i64
  %126 = getelementptr inbounds i32, i32* %123, i64 %125
  %127 = load i32, i32* %126, align 4
  %128 = load i32, i32* %3, align 4
  %129 = sext i32 %128 to i64
  %130 = mul nsw i64 %129, %55
  %131 = getelementptr inbounds i32, i32* %57, i64 %130
  %132 = load i32, i32* %5, align 4
  %133 = sext i32 %132 to i64
  %134 = getelementptr inbounds i32, i32* %131, i64 %133
  %135 = load i32, i32* %134, align 4
  %136 = mul nsw i32 %127, %135
  %137 = add nsw i32 %119, %136
  %138 = load i32, i32* %4, align 4
  %139 = sext i32 %138 to i64
  %140 = mul nsw i64 %139, %87
  %141 = getelementptr inbounds i32, i32* %89, i64 %140
  %142 = load i32, i32* %5, align 4
  %143 = sext i32 %142 to i64
  %144 = getelementptr inbounds i32, i32* %141, i64 %143
  store i32 %137, i32* %144, align 4
  br label %145

145:                                              ; preds = %111
  %146 = load i32, i32* %3, align 4
  %147 = add nsw i32 %146, 1
  store i32 %147, i32* %3, align 4
  br label %107

148:                                              ; preds = %107
  %149 = load i32, i32* %5, align 4
  %150 = load i32, i32* %9, align 4
  %151 = sub nsw i32 %150, 1
  %152 = icmp eq i32 %149, %151
  br i1 %152, label %153, label %163

153:                                              ; preds = %148
  %154 = load i32, i32* %4, align 4
  %155 = sext i32 %154 to i64
  %156 = mul nsw i64 %155, %87
  %157 = getelementptr inbounds i32, i32* %89, i64 %156
  %158 = load i32, i32* %5, align 4
  %159 = sext i32 %158 to i64
  %160 = getelementptr inbounds i32, i32* %157, i64 %159
  %161 = load i32, i32* %160, align 4
  %162 = call i32 (i8*, ...) @printf(i8* getelementptr inbounds ([3 x i8], [3 x i8]* @.str.1, i64 0, i64 0), i32 %161)
  br label %173

163:                                              ; preds = %148
  %164 = load i32, i32* %4, align 4
  %165 = sext i32 %164 to i64
  %166 = mul nsw i64 %165, %87
  %167 = getelementptr inbounds i32, i32* %89, i64 %166
  %168 = load i32, i32* %5, align 4
  %169 = sext i32 %168 to i64
  %170 = getelementptr inbounds i32, i32* %167, i64 %169
  %171 = load i32, i32* %170, align 4
  %172 = call i32 (i8*, ...) @printf(i8* getelementptr inbounds ([4 x i8], [4 x i8]* @.str.2, i64 0, i64 0), i32 %171)
  br label %173

173:                                              ; preds = %163, %153
  br label %174

174:                                              ; preds = %173
  %175 = load i32, i32* %5, align 4
  %176 = add nsw i32 %175, 1
  store i32 %176, i32* %5, align 4
  br label %95

177:                                              ; preds = %95
  %178 = call i32 (i8*, ...) @printf(i8* getelementptr inbounds ([2 x i8], [2 x i8]* @.str.3, i64 0, i64 0))
  br label %179

179:                                              ; preds = %177
  %180 = load i32, i32* %4, align 4
  %181 = add nsw i32 %180, 1
  store i32 %181, i32* %4, align 4
  br label %90

182:                                              ; preds = %90
  %183 = load i8*, i8** %10, align 8
  call void @llvm.stackrestore(i8* %183)
  %184 = load i32, i32* %1, align 4
  ret i32 %184
}

declare dso_local i32 @__isoc99_scanf(i8*, ...) #1

; Function Attrs: nounwind
declare i8* @llvm.stacksave() #2

declare dso_local i32 @printf(i8*, ...) #1

; Function Attrs: nounwind
declare void @llvm.stackrestore(i8*) #2


!llvm.module.flags = !{!0}
!llvm.ident = !{!1}

!0 = !{i32 1, !"wchar_size", i32 4}
!1 = !{!"clang version 10.0.0-4ubuntu1 "}
